; ModuleID = 'source-C-CXX/9/1931.c'
source_filename = "source-C-CXX/9/1931.c"
target datalayout = "e-m:e-p270:32:32-p271:32:32-p272:64:64-i64:64-f80:128-n8:16:32:64-S128"
target triple = "x86_64-pc-linux-gnu"

@.str = private unnamed_addr constant [3 x i8] c"%d\00", align 1

; Function Attrs: nofree nounwind sspstrong uwtable
define dso_local i32 @main() local_unnamed_addr #0 {
  %1 = alloca i32, align 4
  %2 = alloca [100 x i32], align 16
  %3 = alloca [100 x i32], align 16
  %4 = bitcast i32* %1 to i8*
  call void @llvm.lifetime.start.p0i8(i64 4, i8* nonnull %4) #5
  %5 = bitcast [100 x i32]* %2 to i8*
  call void @llvm.lifetime.start.p0i8(i64 400, i8* nonnull %5) #5
  call void @llvm.memset.p0i8.i64(i8* noundef nonnull align 16 dereferenceable(400) %5, i8 0, i64 400, i1 false)
  %6 = bitcast [100 x i32]* %3 to i8*
  call void @llvm.lifetime.start.p0i8(i64 400, i8* nonnull %6) #5
  %7 = call i32 (i8*, ...) @__isoc99_scanf(i8* getelementptr inbounds ([3 x i8], [3 x i8]* @.str, i64 0, i64 0), i32* nonnull %1)
  %8 = load i32, i32* %1, align 4, !tbaa !5
  %9 = icmp sgt i32 %8, 0
  br i1 %9, label %62, label %10

10:                                               ; preds = %0, %62
  %11 = phi i32 [ %8, %0 ], [ %67, %62 ]
  %12 = bitcast [100 x i32]* %3 to <4 x i32>*
  store <4 x i32> <i32 1, i32 1, i32 1, i32 1>, <4 x i32>* %12, align 16, !tbaa !5
  %13 = getelementptr inbounds [100 x i32], [100 x i32]* %3, i64 0, i64 4
  %14 = bitcast i32* %13 to <4 x i32>*
  store <4 x i32> <i32 1, i32 1, i32 1, i32 1>, <4 x i32>* %14, align 16, !tbaa !5
  %15 = getelementptr inbounds [100 x i32], [100 x i32]* %3, i64 0, i64 8
  %16 = bitcast i32* %15 to <4 x i32>*
  store <4 x i32> <i32 1, i32 1, i32 1, i32 1>, <4 x i32>* %16, align 16, !tbaa !5
  %17 = getelementptr inbounds [100 x i32], [100 x i32]* %3, i64 0, i64 12
  %18 = bitcast i32* %17 to <4 x i32>*
  store <4 x i32> <i32 1, i32 1, i32 1, i32 1>, <4 x i32>* %18, align 16, !tbaa !5
  %19 = getelementptr inbounds [100 x i32], [100 x i32]* %3, i64 0, i64 16
  %20 = bitcast i32* %19 to <4 x i32>*
  store <4 x i32> <i32 1, i32 1, i32 1, i32 1>, <4 x i32>* %20, align 16, !tbaa !5
  %21 = getelementptr inbounds [100 x i32], [100 x i32]* %3, i64 0, i64 20
  %22 = bitcast i32* %21 to <4 x i32>*
  store <4 x i32> <i32 1, i32 1, i32 1, i32 1>, <4 x i32>* %22, align 16, !tbaa !5
  %23 = getelementptr inbounds [100 x i32], [100 x i32]* %3, i64 0, i64 24
  %24 = bitcast i32* %23 to <4 x i32>*
  store <4 x i32> <i32 1, i32 1, i32 1, i32 1>, <4 x i32>* %24, align 16, !tbaa !5
  %25 = getelementptr inbounds [100 x i32], [100 x i32]* %3, i64 0, i64 28
  %26 = bitcast i32* %25 to <4 x i32>*
  store <4 x i32> <i32 1, i32 1, i32 1, i32 1>, <4 x i32>* %26, align 16, !tbaa !5
  %27 = getelementptr inbounds [100 x i32], [100 x i32]* %3, i64 0, i64 32
  %28 = bitcast i32* %27 to <4 x i32>*
  store <4 x i32> <i32 1, i32 1, i32 1, i32 1>, <4 x i32>* %28, align 16, !tbaa !5
  %29 = getelementptr inbounds [100 x i32], [100 x i32]* %3, i64 0, i64 36
  %30 = bitcast i32* %29 to <4 x i32>*
  store <4 x i32> <i32 1, i32 1, i32 1, i32 1>, <4 x i32>* %30, align 16, !tbaa !5
  %31 = getelementptr inbounds [100 x i32], [100 x i32]* %3, i64 0, i64 40
  %32 = bitcast i32* %31 to <4 x i32>*
  store <4 x i32> <i32 1, i32 1, i32 1, i32 1>, <4 x i32>* %32, align 16, !tbaa !5
  %33 = getelementptr inbounds [100 x i32], [100 x i32]* %3, i64 0, i64 44
  %34 = bitcast i32* %33 to <4 x i32>*
  store <4 x i32> <i32 1, i32 1, i32 1, i32 1>, <4 x i32>* %34, align 16, !tbaa !5
  %35 = getelementptr inbounds [100 x i32], [100 x i32]* %3, i64 0, i64 48
  %36 = bitcast i32* %35 to <4 x i32>*
  store <4 x i32> <i32 1, i32 1, i32 1, i32 1>, <4 x i32>* %36, align 16, !tbaa !5
  %37 = getelementptr inbounds [100 x i32], [100 x i32]* %3, i64 0, i64 52
  %38 = bitcast i32* %37 to <4 x i32>*
  store <4 x i32> <i32 1, i32 1, i32 1, i32 1>, <4 x i32>* %38, align 16, !tbaa !5
  %39 = getelementptr inbounds [100 x i32], [100 x i32]* %3, i64 0, i64 56
  %40 = bitcast i32* %39 to <4 x i32>*
  store <4 x i32> <i32 1, i32 1, i32 1, i32 1>, <4 x i32>* %40, align 16, !tbaa !5
  %41 = getelementptr inbounds [100 x i32], [100 x i32]* %3, i64 0, i64 60
  %42 = bitcast i32* %41 to <4 x i32>*
  store <4 x i32> <i32 1, i32 1, i32 1, i32 1>, <4 x i32>* %42, align 16, !tbaa !5
  %43 = getelementptr inbounds [100 x i32], [100 x i32]* %3, i64 0, i64 64
  %44 = bitcast i32* %43 to <4 x i32>*
  store <4 x i32> <i32 1, i32 1, i32 1, i32 1>, <4 x i32>* %44, align 16, !tbaa !5
  %45 = getelementptr inbounds [100 x i32], [100 x i32]* %3, i64 0, i64 68
  %46 = bitcast i32* %45 to <4 x i32>*
  store <4 x i32> <i32 1, i32 1, i32 1, i32 1>, <4 x i32>* %46, align 16, !tbaa !5
  %47 = getelementptr inbounds [100 x i32], [100 x i32]* %3, i64 0, i64 72
  %48 = bitcast i32* %47 to <4 x i32>*
  store <4 x i32> <i32 1, i32 1, i32 1, i32 1>, <4 x i32>* %48, align 16, !tbaa !5
  %49 = getelementptr inbounds [100 x i32], [100 x i32]* %3, i64 0, i64 76
  %50 = bitcast i32* %49 to <4 x i32>*
  store <4 x i32> <i32 1, i32 1, i32 1, i32 1>, <4 x i32>* %50, align 16, !tbaa !5
  %51 = getelementptr inbounds [100 x i32], [100 x i32]* %3, i64 0, i64 80
  %52 = bitcast i32* %51 to <4 x i32>*
  store <4 x i32> <i32 1, i32 1, i32 1, i32 1>, <4 x i32>* %52, align 16, !tbaa !5
  %53 = getelementptr inbounds [100 x i32], [100 x i32]* %3, i64 0, i64 84
  %54 = bitcast i32* %53 to <4 x i32>*
  store <4 x i32> <i32 1, i32 1, i32 1, i32 1>, <4 x i32>* %54, align 16, !tbaa !5
  %55 = getelementptr inbounds [100 x i32], [100 x i32]* %3, i64 0, i64 88
  %56 = bitcast i32* %55 to <4 x i32>*
  store <4 x i32> <i32 1, i32 1, i32 1, i32 1>, <4 x i32>* %56, align 16, !tbaa !5
  %57 = getelementptr inbounds [100 x i32], [100 x i32]* %3, i64 0, i64 92
  %58 = bitcast i32* %57 to <4 x i32>*
  store <4 x i32> <i32 1, i32 1, i32 1, i32 1>, <4 x i32>* %58, align 16, !tbaa !5
  %59 = getelementptr inbounds [100 x i32], [100 x i32]* %3, i64 0, i64 96
  %60 = bitcast i32* %59 to <4 x i32>*
  store <4 x i32> <i32 1, i32 1, i32 1, i32 1>, <4 x i32>* %60, align 16, !tbaa !5
  %61 = icmp sgt i32 %11, 1
  br i1 %61, label %70, label %101

62:                                               ; preds = %0, %62
  %63 = phi i64 [ %66, %62 ], [ 0, %0 ]
  %64 = getelementptr inbounds [100 x i32], [100 x i32]* %2, i64 0, i64 %63
  %65 = call i32 (i8*, ...) @__isoc99_scanf(i8* getelementptr inbounds ([3 x i8], [3 x i8]* @.str, i64 0, i64 0), i32* nonnull %64)
  %66 = add nuw nsw i64 %63, 1
  %67 = load i32, i32* %1, align 4, !tbaa !5
  %68 = sext i32 %67 to i64
  %69 = icmp slt i64 %66, %68
  br i1 %69, label %62, label %10, !llvm.loop !9

70:                                               ; preds = %10
  %71 = zext i32 %11 to i64
  %72 = add nsw i32 %11, -2
  %73 = zext i32 %72 to i64
  br label %74

74:                                               ; preds = %70, %221
  %75 = phi i32 [ 0, %70 ], [ %224, %221 ]
  %76 = phi i64 [ %73, %70 ], [ %222, %221 ]
  %77 = phi i64 [ %71, %70 ], [ %78, %221 ]
  %78 = add nsw i64 %77, -1
  %79 = getelementptr inbounds [100 x i32], [100 x i32]* %3, i64 0, i64 %76
  %80 = add nuw nsw i64 %76, 1
  %81 = icmp slt i64 %80, %71
  br i1 %81, label %82, label %221

82:                                               ; preds = %74
  %83 = getelementptr inbounds [100 x i32], [100 x i32]* %2, i64 0, i64 %76
  %84 = load i32, i32* %83, align 4, !tbaa !5
  %85 = and i32 %75, 1
  %86 = icmp eq i32 %85, 0
  br i1 %86, label %87, label %98

87:                                               ; preds = %82
  %88 = getelementptr inbounds [100 x i32], [100 x i32]* %2, i64 0, i64 %78
  %89 = load i32, i32* %88, align 4, !tbaa !5
  %90 = icmp sgt i32 %89, %84
  br i1 %90, label %98, label %91

91:                                               ; preds = %87
  %92 = getelementptr inbounds [100 x i32], [100 x i32]* %3, i64 0, i64 %78
  %93 = load i32, i32* %92, align 4, !tbaa !5
  %94 = add nsw i32 %93, 1
  %95 = load i32, i32* %79, align 4, !tbaa !5
  %96 = icmp slt i32 %94, %95
  br i1 %96, label %98, label %97

97:                                               ; preds = %91
  store i32 %94, i32* %79, align 4, !tbaa !5
  br label %98

98:                                               ; preds = %82, %97, %91, %87
  %99 = phi i64 [ %78, %82 ], [ %77, %97 ], [ %77, %91 ], [ %77, %87 ]
  %100 = icmp eq i32 %75, 0
  br i1 %100, label %221, label %204

101:                                              ; preds = %221, %10
  %102 = icmp sgt i32 %11, 0
  br i1 %102, label %103, label %237

103:                                              ; preds = %101
  %104 = zext i32 %11 to i64
  %105 = icmp ult i32 %11, 8
  br i1 %105, label %200, label %106

106:                                              ; preds = %103
  %107 = add nsw i64 %104, -1
  %108 = add nsw i32 %11, -1
  %109 = trunc i64 %107 to i32
  %110 = icmp ult i32 %108, %109
  %111 = icmp ugt i64 %107, 4294967295
  %112 = or i1 %110, %111
  br i1 %112, label %200, label %113

113:                                              ; preds = %106
  %114 = and i64 %104, 4294967288
  %115 = and i64 %104, 7
  %116 = trunc i64 %114 to i32
  %117 = sub i32 %11, %116
  %118 = add nsw i64 %114, -8
  %119 = lshr exact i64 %118, 3
  %120 = add nuw nsw i64 %119, 1
  %121 = and i64 %120, 1
  %122 = icmp eq i64 %118, 0
  br i1 %122, label %170, label %123

123:                                              ; preds = %113
  %124 = and i64 %120, 4611686018427387902
  br label %125

125:                                              ; preds = %125, %123
  %126 = phi i64 [ 0, %123 ], [ %164, %125 ]
  %127 = phi <4 x i32> [ <i32 1, i32 1, i32 1, i32 1>, %123 ], [ %162, %125 ]
  %128 = phi <4 x i32> [ <i32 1, i32 1, i32 1, i32 1>, %123 ], [ %163, %125 ]
  %129 = phi i64 [ %124, %123 ], [ %165, %125 ]
  %130 = trunc i64 %126 to i32
  %131 = xor i32 %130, -1
  %132 = add i32 %11, %131
  %133 = zext i32 %132 to i64
  %134 = getelementptr inbounds [100 x i32], [100 x i32]* %3, i64 0, i64 %133
  %135 = getelementptr inbounds i32, i32* %134, i64 -3
  %136 = bitcast i32* %135 to <4 x i32>*
  %137 = load <4 x i32>, <4 x i32>* %136, align 4, !tbaa !5
  %138 = shufflevector <4 x i32> %137, <4 x i32> poison, <4 x i32> <i32 3, i32 2, i32 1, i32 0>
  %139 = getelementptr inbounds i32, i32* %134, i64 -7
  %140 = bitcast i32* %139 to <4 x i32>*
  %141 = load <4 x i32>, <4 x i32>* %140, align 4, !tbaa !5
  %142 = shufflevector <4 x i32> %141, <4 x i32> poison, <4 x i32> <i32 3, i32 2, i32 1, i32 0>
  %143 = icmp slt <4 x i32> %138, %127
  %144 = icmp slt <4 x i32> %142, %128
  %145 = select <4 x i1> %143, <4 x i32> %127, <4 x i32> %138
  %146 = select <4 x i1> %144, <4 x i32> %128, <4 x i32> %142
  %147 = trunc i64 %126 to i32
  %148 = xor i32 %147, -9
  %149 = add i32 %11, %148
  %150 = zext i32 %149 to i64
  %151 = getelementptr inbounds [100 x i32], [100 x i32]* %3, i64 0, i64 %150
  %152 = getelementptr inbounds i32, i32* %151, i64 -3
  %153 = bitcast i32* %152 to <4 x i32>*
  %154 = load <4 x i32>, <4 x i32>* %153, align 4, !tbaa !5
  %155 = shufflevector <4 x i32> %154, <4 x i32> poison, <4 x i32> <i32 3, i32 2, i32 1, i32 0>
  %156 = getelementptr inbounds i32, i32* %151, i64 -7
  %157 = bitcast i32* %156 to <4 x i32>*
  %158 = load <4 x i32>, <4 x i32>* %157, align 4, !tbaa !5
  %159 = shufflevector <4 x i32> %158, <4 x i32> poison, <4 x i32> <i32 3, i32 2, i32 1, i32 0>
  %160 = icmp slt <4 x i32> %155, %145
  %161 = icmp slt <4 x i32> %159, %146
  %162 = select <4 x i1> %160, <4 x i32> %145, <4 x i32> %155
  %163 = select <4 x i1> %161, <4 x i32> %146, <4 x i32> %159
  %164 = add nuw i64 %126, 16
  %165 = add i64 %129, -2
  %166 = icmp eq i64 %165, 0
  br i1 %166, label %167, label %125, !llvm.loop !11

167:                                              ; preds = %125
  %168 = trunc i64 %164 to i32
  %169 = xor i32 %168, -1
  br label %170

170:                                              ; preds = %167, %113
  %171 = phi <4 x i32> [ undef, %113 ], [ %162, %167 ]
  %172 = phi <4 x i32> [ undef, %113 ], [ %163, %167 ]
  %173 = phi i32 [ -1, %113 ], [ %169, %167 ]
  %174 = phi <4 x i32> [ <i32 1, i32 1, i32 1, i32 1>, %113 ], [ %162, %167 ]
  %175 = phi <4 x i32> [ <i32 1, i32 1, i32 1, i32 1>, %113 ], [ %163, %167 ]
  %176 = icmp eq i64 %121, 0
  br i1 %176, label %193, label %177

177:                                              ; preds = %170
  %178 = add i32 %11, %173
  %179 = zext i32 %178 to i64
  %180 = getelementptr inbounds [100 x i32], [100 x i32]* %3, i64 0, i64 %179
  %181 = getelementptr inbounds i32, i32* %180, i64 -3
  %182 = bitcast i32* %181 to <4 x i32>*
  %183 = load <4 x i32>, <4 x i32>* %182, align 4, !tbaa !5
  %184 = shufflevector <4 x i32> %183, <4 x i32> poison, <4 x i32> <i32 3, i32 2, i32 1, i32 0>
  %185 = getelementptr inbounds i32, i32* %180, i64 -7
  %186 = bitcast i32* %185 to <4 x i32>*
  %187 = load <4 x i32>, <4 x i32>* %186, align 4, !tbaa !5
  %188 = shufflevector <4 x i32> %187, <4 x i32> poison, <4 x i32> <i32 3, i32 2, i32 1, i32 0>
  %189 = icmp slt <4 x i32> %188, %175
  %190 = select <4 x i1> %189, <4 x i32> %175, <4 x i32> %188
  %191 = icmp slt <4 x i32> %184, %174
  %192 = select <4 x i1> %191, <4 x i32> %174, <4 x i32> %184
  br label %193

193:                                              ; preds = %170, %177
  %194 = phi <4 x i32> [ %171, %170 ], [ %192, %177 ]
  %195 = phi <4 x i32> [ %172, %170 ], [ %190, %177 ]
  %196 = icmp sgt <4 x i32> %194, %195
  %197 = select <4 x i1> %196, <4 x i32> %194, <4 x i32> %195
  %198 = call i32 @llvm.vector.reduce.smax.v4i32(<4 x i32> %197)
  %199 = icmp eq i64 %114, %104
  br i1 %199, label %237, label %200

200:                                              ; preds = %106, %103, %193
  %201 = phi i64 [ %104, %106 ], [ %104, %103 ], [ %115, %193 ]
  %202 = phi i32 [ %11, %106 ], [ %11, %103 ], [ %117, %193 ]
  %203 = phi i32 [ 1, %106 ], [ 1, %103 ], [ %198, %193 ]
  br label %225

204:                                              ; preds = %98, %247
  %205 = phi i64 [ %248, %247 ], [ %99, %98 ]
  %206 = getelementptr inbounds [100 x i32], [100 x i32]* %2, i64 0, i64 %205
  %207 = load i32, i32* %206, align 4, !tbaa !5
  %208 = icmp sgt i32 %207, %84
  br i1 %208, label %216, label %209

209:                                              ; preds = %204
  %210 = getelementptr inbounds [100 x i32], [100 x i32]* %3, i64 0, i64 %205
  %211 = load i32, i32* %210, align 4, !tbaa !5
  %212 = add nsw i32 %211, 1
  %213 = load i32, i32* %79, align 4, !tbaa !5
  %214 = icmp slt i32 %212, %213
  br i1 %214, label %216, label %215

215:                                              ; preds = %209
  store i32 %212, i32* %79, align 4, !tbaa !5
  br label %216

216:                                              ; preds = %204, %209, %215
  %217 = add nsw i64 %205, 1
  %218 = getelementptr inbounds [100 x i32], [100 x i32]* %2, i64 0, i64 %217
  %219 = load i32, i32* %218, align 4, !tbaa !5
  %220 = icmp sgt i32 %219, %84
  br i1 %220, label %247, label %240

221:                                              ; preds = %98, %247, %74
  %222 = add nsw i64 %76, -1
  %223 = icmp sgt i64 %76, 0
  %224 = add i32 %75, 1
  br i1 %223, label %74, label %101, !llvm.loop !13

225:                                              ; preds = %200, %225
  %226 = phi i64 [ %236, %225 ], [ %201, %200 ]
  %227 = phi i32 [ %229, %225 ], [ %202, %200 ]
  %228 = phi i32 [ %234, %225 ], [ %203, %200 ]
  %229 = add nsw i32 %227, -1
  %230 = zext i32 %229 to i64
  %231 = getelementptr inbounds [100 x i32], [100 x i32]* %3, i64 0, i64 %230
  %232 = load i32, i32* %231, align 4, !tbaa !5
  %233 = icmp slt i32 %232, %228
  %234 = select i1 %233, i32 %228, i32 %232
  %235 = icmp sgt i64 %226, 1
  %236 = add nsw i64 %226, -1
  br i1 %235, label %225, label %237, !llvm.loop !14

237:                                              ; preds = %225, %193, %101
  %238 = phi i32 [ 1, %101 ], [ %198, %193 ], [ %234, %225 ]
  %239 = call i32 (i8*, ...) @printf(i8* nonnull dereferenceable(1) getelementptr inbounds ([3 x i8], [3 x i8]* @.str, i64 0, i64 0), i32 %238)
  call void @llvm.lifetime.end.p0i8(i64 400, i8* nonnull %6) #5
  call void @llvm.lifetime.end.p0i8(i64 400, i8* nonnull %5) #5
  call void @llvm.lifetime.end.p0i8(i64 4, i8* nonnull %4) #5
  ret i32 0

240:                                              ; preds = %216
  %241 = getelementptr inbounds [100 x i32], [100 x i32]* %3, i64 0, i64 %217
  %242 = load i32, i32* %241, align 4, !tbaa !5
  %243 = add nsw i32 %242, 1
  %244 = load i32, i32* %79, align 4, !tbaa !5
  %245 = icmp slt i32 %243, %244
  br i1 %245, label %247, label %246

246:                                              ; preds = %240
  store i32 %243, i32* %79, align 4, !tbaa !5
  br label %247

247:                                              ; preds = %246, %240, %216
  %248 = add nsw i64 %205, 2
  %249 = trunc i64 %248 to i32
  %250 = icmp eq i32 %11, %249
  br i1 %250, label %221, label %204, !llvm.loop !15
}

; Function Attrs: argmemonly mustprogress nofree nosync nounwind willreturn
declare void @llvm.lifetime.start.p0i8(i64 immarg, i8* nocapture) #1

; Function Attrs: argmemonly mustprogress nofree nounwind willreturn writeonly
declare void @llvm.memset.p0i8.i64(i8* nocapture writeonly, i8, i64, i1 immarg) #2

; Function Attrs: nofree nounwind
declare noundef i32 @__isoc99_scanf(i8* nocapture noundef readonly, ...) local_unnamed_addr #3

; Function Attrs: nofree nounwind
declare noundef i32 @printf(i8* nocapture noundef readonly, ...) local_unnamed_addr #3

; Function Attrs: argmemonly mustprogress nofree nosync nounwind willreturn
declare void @llvm.lifetime.end.p0i8(i64 immarg, i8* nocapture) #1

; Function Attrs: nofree nosync nounwind readnone willreturn
declare i32 @llvm.vector.reduce.smax.v4i32(<4 x i32>) #4


!llvm.module.flags = !{!0, !1, !2, !3}
!llvm.ident = !{!4}

!0 = !{i32 1, !"wchar_size", i32 4}
!1 = !{i32 7, !"PIC Level", i32 2}
!2 = !{i32 7, !"PIE Level", i32 2}
!3 = !{i32 7, !"uwtable", i32 1}
!4 = !{!"clang version 13.0.0"}
!5 = !{!6, !6, i64 0}
!6 = !{!"int", !7, i64 0}
!7 = !{!"omnipotent char", !8, i64 0}
!8 = !{!"Simple C/C++ TBAA"}
!9 = distinct !{!9, !10}
!10 = !{!"llvm.loop.mustprogress"}
!11 = distinct !{!11, !10, !12}
!12 = !{!"llvm.loop.isvectorized", i32 1}
!13 = distinct !{!13, !10}
!14 = distinct !{!14, !10, !12}
!15 = distinct !{!15, !10}
